; Function Attrs: mustprogress uwtable
define noundef zeroext i1 @_ZN19ColoringRulesDialog13isValidFilterE7QStringPS0_(ptr nocapture nonnull readnone align 8 %0, ptr noundef nonnull %1, ptr noundef %2) local_unnamed_addr #0 align 2 personality ptr @__gxx_personality_v0 {
  %4 = alloca ptr, align 8
  %5 = alloca ptr, align 8
  %6 = alloca %class.QByteArray, align 8
  store ptr null, ptr %4, align 8
  store ptr null, ptr %5, align 8
  call void @_ZN7QString13toUtf8_helperERKS_(ptr dead_on_unwind nonnull writable sret(%class.QByteArray) align 8 %6, ptr noundef nonnull align 8 dereferenceable(24) %1)
  %7 = getelementptr inbounds i8, ptr %6, i64 8
  %8 = load ptr, ptr %7, align 8
  %.not.i.i = icmp eq ptr %8, null
  %spec.select.i.i = select i1 %.not.i.i, ptr @_ZN10QByteArray6_emptyE, ptr %8
  %9 = invoke zeroext i1 @dfilter_compile_full(ptr noundef nonnull %spec.select.i.i, ptr noundef nonnull %4, ptr noundef nonnull %5, i32 noundef 6, ptr noundef nonnull @__func__._ZN19ColoringRulesDialog13isValidFilterE7QStringPS0_)
          to label %10 unwind label %17

10:                                               ; preds = %3
  %11 = load ptr, ptr %6, align 8
  %.not.i.i.i = icmp eq ptr %11, null
  br i1 %.not.i.i.i, label %_ZN10QByteArrayD2Ev.exit, label %_ZN17QArrayDataPointerIcE5derefEv.exit.i.i

_ZN17QArrayDataPointerIcE5derefEv.exit.i.i:       ; preds = %10
  %12 = atomicrmw sub ptr %11, i32 1 seq_cst, align 4
  %.not.i.i4 = icmp eq i32 %12, 1
  br i1 %.not.i.i4, label %13, label %_ZN10QByteArrayD2Ev.exit

13:                                               ; preds = %_ZN17QArrayDataPointerIcE5derefEv.exit.i.i
  %14 = load ptr, ptr %6, align 8
  call void @_ZN10QArrayData10deallocateEPS_xx(ptr noundef %14, i64 noundef 1, i64 noundef 8) #19
  br label %_ZN10QByteArrayD2Ev.exit

_ZN10QByteArrayD2Ev.exit:                         ; preds = %10, %_ZN17QArrayDataPointerIcE5derefEv.exit.i.i, %13
  br i1 %9, label %15, label %23

15:                                               ; preds = %_ZN10QByteArrayD2Ev.exit
  %16 = load ptr, ptr %4, align 8
  call void @dfilter_free(ptr noundef %16)
  br label %29

17:                                               ; preds = %3
  %18 = landingpad { ptr, i32 }
          cleanup
  %19 = load ptr, ptr %6, align 8
  %.not.i.i.i5 = icmp eq ptr %19, null
  br i1 %.not.i.i.i5, label %_ZN10QByteArrayD2Ev.exit8, label %_ZN17QArrayDataPointerIcE5derefEv.exit.i.i6

_ZN17QArrayDataPointerIcE5derefEv.exit.i.i6:      ; preds = %17
  %20 = atomicrmw sub ptr %19, i32 1 seq_cst, align 4
  %.not.i.i7 = icmp eq i32 %20, 1
  br i1 %.not.i.i7, label %21, label %_ZN10QByteArrayD2Ev.exit8

21:                                               ; preds = %_ZN17QArrayDataPointerIcE5derefEv.exit.i.i6
  %22 = load ptr, ptr %6, align 8
  call void @_ZN10QArrayData10deallocateEPS_xx(ptr noundef %22, i64 noundef 1, i64 noundef 8) #19
  br label %_ZN10QByteArrayD2Ev.exit8

_ZN10QByteArrayD2Ev.exit8:                        ; preds = %17, %_ZN17QArrayDataPointerIcE5derefEv.exit.i.i6, %21
  resume { ptr, i32 } %18

23:                                               ; preds = %_ZN10QByteArrayD2Ev.exit
  %24 = load ptr, ptr %5, align 8
  %.not = icmp eq ptr %24, null
  br i1 %.not, label %29, label %25

25:                                               ; preds = %23
  %26 = getelementptr inbounds i8, ptr %24, i64 8
  %27 = load ptr, ptr %26, align 8
  %28 = call noundef nonnull align 8 dereferenceable(24) ptr @_ZN7QString6appendEPKc(ptr noundef nonnull align 8 dereferenceable(24) %2, ptr noundef %27)
  call void @df_error_free(ptr noundef nonnull %5)
  br label %29

29:                                               ; preds = %23, %25, %15
  ret i1 %9
}